target datalayout = "e-m:e-p270:32:32-p271:32:32-p272:64:64-i64:64-i128:128-f80:128-n8:16:32:64-S128"
target triple = "x86_64-pc-linux-gnu"

%struct._lv_draw_glyph_dsc_t = type { ptr, i32, ptr, ptr, ptr, %struct.lv_color_t, i8, i32, %struct.lv_point_t, ptr }
%struct.lv_color_t = type { i8, i8, i8 }
%struct.lv_point_t = type { i32, i32 }
%struct.lv_draw_letter_dsc_t = type { %struct.lv_draw_dsc_base_t, i32, ptr, %struct.lv_color_t, i32, i32, i32, i32, i32, %struct.lv_point_t, i8, i8 }
%struct.lv_draw_dsc_base_t = type { ptr, i32, i32, i32, ptr, i64, ptr }
%struct.lv_area_t = type { i32, i32, i32, i32 }

; Function Attrs: nounwind uwtable
define void @lv_draw_sw_letter(ptr noundef %0, ptr noundef %1, ptr noundef %2) #0 {
  %4 = alloca ptr, align 8
  %5 = alloca ptr, align 8
  %6 = alloca ptr, align 8
  %7 = alloca %struct._lv_draw_glyph_dsc_t, align 8
  %8 = alloca %struct.lv_point_t, align 4
  store ptr %0, ptr %4, align 8, !tbaa !3
  store ptr %1, ptr %5, align 8, !tbaa !8
  store ptr %2, ptr %6, align 8, !tbaa !8
  %9 = load ptr, ptr %5, align 8, !tbaa !8
  %10 = getelementptr inbounds nuw %struct.lv_draw_letter_dsc_t, ptr %9, i32 0, i32 10
  %11 = load i8, ptr %10, align 8, !tbaa !9
  %12 = zext i8 %11 to i32
  %13 = icmp sle i32 %12, 2
  br i1 %13, label %14, label %15

14:                                               ; preds = %3
  br label %54

15:                                               ; preds = %3
  call void @llvm.lifetime.start.p0(i64 64, ptr %7) #5
  call void @lv_draw_glyph_dsc_init(ptr noundef %7)
  %16 = load ptr, ptr %5, align 8, !tbaa !8
  %17 = getelementptr inbounds nuw %struct.lv_draw_letter_dsc_t, ptr %16, i32 0, i32 10
  %18 = load i8, ptr %17, align 8, !tbaa !9
  %19 = getelementptr inbounds nuw %struct._lv_draw_glyph_dsc_t, ptr %7, i32 0, i32 6
  store i8 %18, ptr %19, align 1, !tbaa !19
  %20 = getelementptr inbounds nuw %struct._lv_draw_glyph_dsc_t, ptr %7, i32 0, i32 3
  store ptr null, ptr %20, align 8, !tbaa !22
  %21 = getelementptr inbounds nuw %struct._lv_draw_glyph_dsc_t, ptr %7, i32 0, i32 5
  %22 = load ptr, ptr %5, align 8, !tbaa !8
  %23 = getelementptr inbounds nuw %struct.lv_draw_letter_dsc_t, ptr %22, i32 0, i32 3
  call void @llvm.memcpy.p0.p0.i64(ptr align 8 %21, ptr align 8 %23, i64 3, i1 false), !tbaa.struct !23
  %24 = load ptr, ptr %5, align 8, !tbaa !8
  %25 = getelementptr inbounds nuw %struct.lv_draw_letter_dsc_t, ptr %24, i32 0, i32 4
  %26 = load i32, ptr %25, align 4, !tbaa !25
  %27 = getelementptr inbounds nuw %struct._lv_draw_glyph_dsc_t, ptr %7, i32 0, i32 7
  store i32 %26, ptr %27, align 4, !tbaa !26
  %28 = getelementptr inbounds nuw %struct._lv_draw_glyph_dsc_t, ptr %7, i32 0, i32 8
  %29 = load ptr, ptr %5, align 8, !tbaa !8
  %30 = getelementptr inbounds nuw %struct.lv_draw_letter_dsc_t, ptr %29, i32 0, i32 9
  call void @llvm.memcpy.p0.p0.i64(ptr align 8 %28, ptr align 8 %30, i64 8, i1 false), !tbaa.struct !27
  %31 = load ptr, ptr %4, align 8, !tbaa !3
  %32 = getelementptr inbounds nuw %struct.lv_point_t, ptr %8, i32 0, i32 0
  %33 = load ptr, ptr %6, align 8, !tbaa !8
  %34 = getelementptr inbounds nuw %struct.lv_area_t, ptr %33, i32 0, i32 0
  %35 = load i32, ptr %34, align 4, !tbaa !29
  store i32 %35, ptr %32, align 4, !tbaa !31
  %36 = getelementptr inbounds nuw %struct.lv_point_t, ptr %8, i32 0, i32 1
  %37 = load ptr, ptr %6, align 8, !tbaa !8
  %38 = getelementptr inbounds nuw %struct.lv_area_t, ptr %37, i32 0, i32 1
  %39 = load i32, ptr %38, align 4, !tbaa !32
  store i32 %39, ptr %36, align 4, !tbaa !33
  %40 = load ptr, ptr %5, align 8, !tbaa !8
  %41 = getelementptr inbounds nuw %struct.lv_draw_letter_dsc_t, ptr %40, i32 0, i32 2
  %42 = load ptr, ptr %41, align 8, !tbaa !34
  %43 = load ptr, ptr %5, align 8, !tbaa !8
  %44 = getelementptr inbounds nuw %struct.lv_draw_letter_dsc_t, ptr %43, i32 0, i32 1
  %45 = load i32, ptr %44, align 8, !tbaa !35
  call void @lv_draw_unit_draw_letter(ptr noundef %31, ptr noundef %7, ptr noundef %8, ptr noundef %42, i32 noundef %45, ptr noundef @draw_letter_cb)
  %46 = getelementptr inbounds nuw %struct._lv_draw_glyph_dsc_t, ptr %7, i32 0, i32 9
  %47 = load ptr, ptr %46, align 8, !tbaa !36
  %48 = icmp ne ptr %47, null
  br i1 %48, label %49, label %53

49:                                               ; preds = %15
  %50 = getelementptr inbounds nuw %struct._lv_draw_glyph_dsc_t, ptr %7, i32 0, i32 9
  %51 = load ptr, ptr %50, align 8, !tbaa !36
  call void @lv_draw_buf_destroy(ptr noundef %51)
  %52 = getelementptr inbounds nuw %struct._lv_draw_glyph_dsc_t, ptr %7, i32 0, i32 9
  store ptr null, ptr %52, align 8, !tbaa !36
  br label %53

53:                                               ; preds = %49, %15
  call void @llvm.lifetime.end.p0(i64 64, ptr %7) #5
  br label %54

54:                                               ; preds = %53, %14
  ret void
}