; Function Attrs: nounwind uwtable
define void @lv_draw_sw_letter(ptr noundef %0, ptr noundef readonly captures(none) %1, ptr noundef readonly captures(none) %2) local_unnamed_addr #0 {
  %4 = alloca %struct._lv_draw_glyph_dsc_t, align 8
  %5 = alloca %struct.lv_point_t, align 4
  %6 = getelementptr inbounds nuw i8, ptr %1, i64 96
  %7 = load i8, ptr %6, align 8, !tbaa !3
  %8 = icmp ult i8 %7, 3
  br i1 %8, label %33, label %9

9:                                                ; preds = %3
  call void @llvm.lifetime.start.p0(i64 64, ptr nonnull %4) #4
  call void @lv_draw_glyph_dsc_init(ptr noundef nonnull %4) #4
  %10 = load i8, ptr %6, align 8, !tbaa !3
  %11 = getelementptr inbounds nuw i8, ptr %4, i64 43
  store i8 %10, ptr %11, align 1, !tbaa !16
  %12 = getelementptr inbounds nuw i8, ptr %4, i64 24
  store ptr null, ptr %12, align 8, !tbaa !19
  %13 = getelementptr inbounds nuw i8, ptr %4, i64 40
  %14 = getelementptr inbounds nuw i8, ptr %1, i64 64
  call void @llvm.memcpy.p0.p0.i64(ptr noundef nonnull align 8 dereferenceable(3) %13, ptr noundef nonnull align 8 dereferenceable(3) %14, i64 3, i1 false), !tbaa.struct !20
  %15 = getelementptr inbounds nuw i8, ptr %1, i64 68
  %16 = load i32, ptr %15, align 4, !tbaa !22
  %17 = getelementptr inbounds nuw i8, ptr %4, i64 44
  store i32 %16, ptr %17, align 4, !tbaa !23
  %18 = getelementptr inbounds nuw i8, ptr %4, i64 48
  %19 = getelementptr inbounds nuw i8, ptr %1, i64 88
  %20 = load i64, ptr %19, align 8
  store i64 %20, ptr %18, align 8
  %21 = load i32, ptr %2, align 4, !tbaa !24
  store i32 %21, ptr %5, align 4, !tbaa !26
  %22 = getelementptr inbounds nuw i8, ptr %5, i64 4
  %23 = getelementptr inbounds nuw i8, ptr %2, i64 4
  %24 = load i32, ptr %23, align 4, !tbaa !27
  store i32 %24, ptr %22, align 4, !tbaa !28
  %25 = getelementptr inbounds nuw i8, ptr %1, i64 56
  %26 = load ptr, ptr %25, align 8, !tbaa !29
  %27 = getelementptr inbounds nuw i8, ptr %1, i64 48
  %28 = load i32, ptr %27, align 8, !tbaa !30
  call void @lv_draw_unit_draw_letter(ptr noundef %0, ptr noundef nonnull %4, ptr noundef nonnull %5, ptr noundef %26, i32 noundef %28, ptr noundef nonnull @draw_letter_cb) #4
  %29 = getelementptr inbounds nuw i8, ptr %4, i64 56
  %30 = load ptr, ptr %29, align 8, !tbaa !31
  %.not = icmp eq ptr %30, null
  br i1 %.not, label %32, label %31

31:                                               ; preds = %9
  call void @lv_draw_buf_destroy(ptr noundef nonnull %30) #4
  br label %32

32:                                               ; preds = %31, %9
  call void @llvm.lifetime.end.p0(i64 64, ptr nonnull %4) #4
  br label %33

33:                                               ; preds = %3, %32
  ret void
}